target datalayout = "e-m:e-p270:32:32-p271:32:32-p272:64:64-i64:64-i128:128-f80:128-n8:16:32:64-S128"
target triple = "x86_64-pc-linux-gnu"

; Function Attrs: nounwind uwtable
define internal i32 @mywcslen(ptr noundef %0) #0 {
  %2 = alloca ptr, align 8
  %3 = alloca ptr, align 8
  store ptr %0, ptr %2, align 8
  %4 = load ptr, ptr %2, align 8
  store ptr %4, ptr %3, align 8
  br label %5

5:                                                ; preds = %9, %1
  %6 = load ptr, ptr %3, align 8
  %7 = load i32, ptr %6, align 4
  %8 = icmp ne i32 %7, 0
  br i1 %8, label %9, label %12

9:                                                ; preds = %5
  %10 = load ptr, ptr %3, align 8
  %11 = getelementptr inbounds i32, ptr %10, i32 1
  store ptr %11, ptr %3, align 8
  br label %5, !llvm.loop !10

12:                                               ; preds = %5
  %13 = load ptr, ptr %3, align 8
  %14 = load ptr, ptr %2, align 8
  %15 = ptrtoint ptr %13 to i64
  %16 = ptrtoint ptr %14 to i64
  %17 = sub i64 %15, %16
  %18 = sdiv exact i64 %17, 4
  %19 = trunc i64 %18 to i32
  ret i32 %19
}

; Function Attrs: nounwind uwtable
define internal zeroext i16 @strTo16(ptr noundef %0) #0 {
  %2 = alloca i16, align 2
  %3 = alloca ptr, align 8
  %4 = alloca ptr, align 8
  %5 = alloca i16, align 2
  store ptr %0, ptr %3, align 8
  %6 = load ptr, ptr %3, align 8
  %7 = icmp eq ptr %6, null
  br i1 %7, label %8, label %9

8:                                                ; preds = %1
  store i16 0, ptr %2, align 2
  br label %24

9:                                                ; preds = %1
  %10 = load ptr, ptr %3, align 8
  store ptr %10, ptr %4, align 8
  %11 = load ptr, ptr %4, align 8
  %12 = getelementptr inbounds i8, ptr %11, i64 0
  %13 = load i8, ptr %12, align 1
  %14 = zext i8 %13 to i16
  %15 = zext i16 %14 to i32
  %16 = shl i32 %15, 8
  %17 = load ptr, ptr %4, align 8
  %18 = getelementptr inbounds i8, ptr %17, i64 1
  %19 = load i8, ptr %18, align 1
  %20 = zext i8 %19 to i32
  %21 = or i32 %16, %20
  %22 = trunc i32 %21 to i16
  store i16 %22, ptr %5, align 2
  %23 = load i16, ptr %5, align 2
  store i16 %23, ptr %2, align 2
  br label %24

24:                                               ; preds = %9, %8
  %25 = load i16, ptr %2, align 2
  ret i16 %25
}

; Function Attrs: nounwind uwtable
define hidden i32 @cmsMLUsetWide(ptr noundef %0, ptr noundef %1, ptr noundef %2, ptr noundef %3) #0 {
  %5 = alloca i32, align 4
  %6 = alloca ptr, align 8
  %7 = alloca ptr, align 8
  %8 = alloca ptr, align 8
  %9 = alloca ptr, align 8
  %10 = alloca i16, align 2
  %11 = alloca i16, align 2
  %12 = alloca i32, align 4
  store ptr %0, ptr %6, align 8
  store ptr %1, ptr %7, align 8
  store ptr %2, ptr %8, align 8
  store ptr %3, ptr %9, align 8
  %13 = load ptr, ptr %7, align 8
  %14 = call zeroext i16 @strTo16(ptr noundef %13)
  store i16 %14, ptr %10, align 2
  %15 = load ptr, ptr %8, align 8
  %16 = call zeroext i16 @strTo16(ptr noundef %15)
  store i16 %16, ptr %11, align 2
  %17 = load ptr, ptr %6, align 8
  %18 = icmp eq ptr %17, null
  br i1 %18, label %19, label %20

19:                                               ; preds = %4
  store i32 0, ptr %5, align 4
  br label %40

20:                                               ; preds = %4
  %21 = load ptr, ptr %9, align 8
  %22 = icmp eq ptr %21, null
  br i1 %22, label %23, label %24

23:                                               ; preds = %20
  store i32 0, ptr %5, align 4
  br label %40

24:                                               ; preds = %20
  %25 = load ptr, ptr %9, align 8
  %26 = call i32 @mywcslen(ptr noundef %25)
  %27 = zext i32 %26 to i64
  %28 = mul i64 %27, 4
  %29 = trunc i64 %28 to i32
  store i32 %29, ptr %12, align 4
  %30 = load i32, ptr %12, align 4
  %31 = icmp eq i32 %30, 0
  br i1 %31, label %32, label %33

32:                                               ; preds = %24
  store i32 4, ptr %12, align 4
  br label %33

33:                                               ; preds = %32, %24
  %34 = load ptr, ptr %6, align 8
  %35 = load i32, ptr %12, align 4
  %36 = load ptr, ptr %9, align 8
  %37 = load i16, ptr %10, align 2
  %38 = load i16, ptr %11, align 2
  %39 = call i32 @AddMLUBlock(ptr noundef %34, i32 noundef %35, ptr noundef %36, i16 noundef zeroext %37, i16 noundef zeroext %38)
  store i32 %39, ptr %5, align 4
  br label %40

40:                                               ; preds = %33, %23, %19
  %41 = load i32, ptr %5, align 4
  ret i32 %41
}