; Function Attrs: nounwind uwtable
define hidden range(i32 0, 2) i32 @cmsMLUsetWide(ptr noundef %0, ptr noundef readonly %1, ptr noundef readonly %2, ptr noundef %3) local_unnamed_addr #0 {
  %5 = icmp eq ptr %1, null
  br i1 %5, label %strTo16.exit, label %6

6:                                                ; preds = %4
  %7 = load i8, ptr %1, align 1
  %8 = zext i8 %7 to i16
  %9 = shl nuw i16 %8, 8
  %10 = getelementptr inbounds i8, ptr %1, i64 1
  %11 = load i8, ptr %10, align 1
  %12 = zext i8 %11 to i16
  %13 = or disjoint i16 %9, %12
  br label %strTo16.exit

strTo16.exit:                                     ; preds = %4, %6
  %.0.i = phi i16 [ %13, %6 ], [ 0, %4 ]
  %14 = icmp eq ptr %2, null
  br i1 %14, label %strTo16.exit14, label %15

15:                                               ; preds = %strTo16.exit
  %16 = load i8, ptr %2, align 1
  %17 = zext i8 %16 to i16
  %18 = shl nuw i16 %17, 8
  %19 = getelementptr inbounds i8, ptr %2, i64 1
  %20 = load i8, ptr %19, align 1
  %21 = zext i8 %20 to i16
  %22 = or disjoint i16 %18, %21
  br label %strTo16.exit14

strTo16.exit14:                                   ; preds = %strTo16.exit, %15
  %.0.i13 = phi i16 [ %22, %15 ], [ 0, %strTo16.exit ]
  %23 = icmp eq ptr %0, null
  %24 = icmp eq ptr %3, null
  %or.cond = or i1 %23, %24
  br i1 %or.cond, label %34, label %.preheader

.preheader:                                       ; preds = %strTo16.exit14, %.preheader
  %.0.i15 = phi ptr [ %26, %.preheader ], [ %3, %strTo16.exit14 ]
  %25 = load i32, ptr %.0.i15, align 4
  %.not.i = icmp eq i32 %25, 0
  %26 = getelementptr inbounds i8, ptr %.0.i15, i64 4
  br i1 %.not.i, label %mywcslen.exit, label %.preheader, !llvm.loop !11

mywcslen.exit:                                    ; preds = %.preheader
  %27 = ptrtoint ptr %.0.i15 to i64
  %28 = ptrtoint ptr %3 to i64
  %29 = sub i64 %27, %28
  %30 = trunc i64 %29 to i32
  %31 = and i32 %30, -4
  %32 = icmp eq i32 %31, 0
  %spec.store.select = select i1 %32, i32 4, i32 %31
  %33 = tail call fastcc i32 @AddMLUBlock(ptr noundef nonnull %0, i32 noundef %spec.store.select, ptr noundef nonnull %3, i16 noundef zeroext %.0.i, i16 noundef zeroext %.0.i13)
  br label %34

34:                                               ; preds = %strTo16.exit14, %mywcslen.exit
  %.0 = phi i32 [ %33, %mywcslen.exit ], [ 0, %strTo16.exit14 ]
  ret i32 %.0
}